; ModuleID = '50/2050.c'
source_filename = "50/2050.c"
target datalayout = "e-m:e-p270:32:32-p271:32:32-p272:64:64-i64:64-f80:128-n8:16:32:64-S128"
target triple = "x86_64-pc-linux-gnu"

@__const.main.m = private unnamed_addr constant [13 x i32] [i32 0, i32 31, i32 28, i32 31, i32 30, i32 31, i32 30, i32 31, i32 31, i32 30, i32 31, i32 30, i32 31], align 16
@.str = private unnamed_addr constant [3 x i8] c"%d\00", align 1
@.str.1 = private unnamed_addr constant [4 x i8] c"%d\0A\00", align 1

; Function Attrs: noinline nounwind uwtable
define dso_local i32 @main() #0 {
  %1 = alloca i32, align 4
  %2 = alloca i32, align 4
  %3 = alloca i32, align 4
  %4 = alloca [13 x i32], align 16
  %5 = alloca i32, align 4
  store i32 0, i32* %1, align 4
  %6 = bitcast [13 x i32]* %4 to i8*
  call void @llvm.memcpy.p0i8.p0i8.i64(i8* align 16 %6, i8* align 16 bitcast ([13 x i32]* @__const.main.m to i8*), i64 52, i1 false)
  %7 = call i32 (i8*, ...) @__isoc99_scanf(i8* getelementptr inbounds ([3 x i8], [3 x i8]* @.str, i64 0, i64 0), i32* %2)
  store i32 0, i32* %3, align 4
  br label %8

8:                                                ; preds = %22, %0
  %9 = load i32, i32* %3, align 4
  %10 = icmp slt i32 %9, 7
  br i1 %10, label %11, label %25

11:                                               ; preds = %8
  %12 = load i32, i32* %2, align 4
  %13 = load i32, i32* %3, align 4
  %14 = add nsw i32 %12, %13
  %15 = srem i32 %14, 7
  %16 = icmp eq i32 %15, 5
  br i1 %16, label %17, label %21

17:                                               ; preds = %11
  %18 = load i32, i32* %3, align 4
  %19 = add nsw i32 1, %18
  %20 = srem i32 %19, 7
  store i32 %20, i32* %2, align 4
  br label %25

21:                                               ; preds = %11
  br label %22

22:                                               ; preds = %21
  %23 = load i32, i32* %3, align 4
  %24 = add nsw i32 %23, 1
  store i32 %24, i32* %3, align 4
  br label %8

25:                                               ; preds = %17, %8
  store i32 13, i32* %5, align 4
  store i32 0, i32* %3, align 4
  br label %26

26:                                               ; preds = %45, %25
  %27 = load i32, i32* %3, align 4
  %28 = icmp slt i32 %27, 12
  br i1 %28, label %29, label %48

29:                                               ; preds = %26
  %30 = load i32, i32* %5, align 4
  %31 = load i32, i32* %3, align 4
  %32 = sext i32 %31 to i64
  %33 = getelementptr inbounds [13 x i32], [13 x i32]* %4, i64 0, i64 %32
  %34 = load i32, i32* %33, align 4
  %35 = add nsw i32 %30, %34
  store i32 %35, i32* %5, align 4
  %36 = load i32, i32* %5, align 4
  %37 = srem i32 %36, 7
  %38 = load i32, i32* %2, align 4
  %39 = icmp eq i32 %37, %38
  br i1 %39, label %40, label %44

40:                                               ; preds = %29
  %41 = load i32, i32* %3, align 4
  %42 = add nsw i32 %41, 1
  %43 = call i32 (i8*, ...) @printf(i8* getelementptr inbounds ([4 x i8], [4 x i8]* @.str.1, i64 0, i64 0), i32 %42)
  br label %44

44:                                               ; preds = %40, %29
  br label %45

45:                                               ; preds = %44
  %46 = load i32, i32* %3, align 4
  %47 = add nsw i32 %46, 1
  store i32 %47, i32* %3, align 4
  br label %26

48:                                               ; preds = %26
  ret i32 0
}

; Function Attrs: argmemonly nounwind willreturn
declare void @llvm.memcpy.p0i8.p0i8.i64(i8* noalias nocapture writeonly, i8* noalias nocapture readonly, i64, i1 immarg) #1

declare dso_local i32 @__isoc99_scanf(i8*, ...) #2

declare dso_local i32 @printf(i8*, ...) #2


!llvm.module.flags = !{!0}
!llvm.ident = !{!1}

!0 = !{i32 1, !"wchar_size", i32 4}
!1 = !{!"clang version 10.0.0-4ubuntu1 "}
